; Function Attrs: nounwind uwtable
define dso_local void @clusterSaveConfigOrDie(i32 noundef %0) local_unnamed_addr #3 {
  %2 = tail call i32 @clusterSaveConfig(i32 noundef %0)
  %3 = icmp eq i32 %2, -1
  br i1 %3, label %4, label %9

4:                                                ; preds = %1
  %5 = load i32, ptr getelementptr inbounds nuw (i8, ptr @server, i64 6288), align 8, !tbaa !63
  %6 = icmp sgt i32 %5, 3
  br i1 %6, label %8, label %7

7:                                                ; preds = %4
  tail call void (i32, ptr, ...) @_serverLog(i32 noundef 3, ptr noundef nonnull @.str.38) #33
  br label %8

8:                                                ; preds = %4, %7
  tail call void @exit(i32 noundef 1) #37
  unreachable

9:                                                ; preds = %1
  ret void
}